target datalayout = "e-m:e-p270:32:32-p271:32:32-p272:64:64-i64:64-i128:128-f80:128-n8:16:32:64-S128"
target triple = "x86_64-pc-linux-gnu"

%struct.SlruSharedData = type { i32, ptr, ptr, ptr, ptr, ptr, ptr, ptr, ptr, ptr, i32, %struct.pg_atomic_uint64, i32 }
%struct.pg_atomic_uint64 = type { i64 }
%union.LWLockPadded = type { %struct.LWLock, [112 x i8] }
%struct.LWLock = type { i16, %struct.pg_atomic_uint32, %struct.proclist_head }
%struct.pg_atomic_uint32 = type { i32 }
%struct.proclist_head = type { i32, i32 }
%struct.SlruCtlData = type { ptr, i16, i8, i32, ptr, [64 x i8] }

@IsUnderPostmaster = external global i8, align 1

; Function Attrs: inlinehint nounwind uwtable
define internal void @pg_atomic_init_u64_impl(ptr noundef %0, i64 noundef %1) #4 {
  %3 = alloca ptr, align 8
  %4 = alloca i64, align 8
  store ptr %0, ptr %3, align 8
  store i64 %1, ptr %4, align 8
  %5 = load i64, ptr %4, align 8
  %6 = load ptr, ptr %3, align 8
  %7 = getelementptr inbounds nuw %struct.pg_atomic_uint64, ptr %6, i32 0, i32 0
  store volatile i64 %5, ptr %7, align 8
  ret void
}

; Function Attrs: inlinehint nounwind uwtable
define internal void @pg_atomic_init_u64(ptr noundef %0, i64 noundef %1) #4 {
  %3 = alloca ptr, align 8
  %4 = alloca i64, align 8
  store ptr %0, ptr %3, align 8
  store i64 %1, ptr %4, align 8
  %5 = load ptr, ptr %3, align 8
  %6 = load i64, ptr %4, align 8
  call void @pg_atomic_init_u64_impl(ptr noundef %5, i64 noundef %6)
  ret void
}

; Function Attrs: nounwind uwtable
define dso_local i64 @SimpleLruShmemSize(i32 noundef %0, i32 noundef %1) #0 {
  %3 = alloca i32, align 4
  %4 = alloca i32, align 4
  %5 = alloca i32, align 4
  %6 = alloca i64, align 8
  store i32 %0, ptr %3, align 4
  store i32 %1, ptr %4, align 4
  call void @llvm.lifetime.start.p0(i64 4, ptr %5) #9
  %7 = load i32, ptr %3, align 4
  %8 = sdiv i32 %7, 16
  store i32 %8, ptr %5, align 4
  call void @llvm.lifetime.start.p0(i64 8, ptr %6) #9
  store i64 104, ptr %6, align 8
  %9 = load i32, ptr %3, align 4
  %10 = sext i32 %9 to i64
  %11 = mul i64 %10, 8
  %12 = add i64 %11, 7
  %13 = and i64 %12, -8
  %14 = load i64, ptr %6, align 8
  %15 = add i64 %14, %13
  store i64 %15, ptr %6, align 8
  %16 = load i32, ptr %3, align 4
  %17 = sext i32 %16 to i64
  %18 = mul i64 %17, 4
  %19 = add i64 %18, 7
  %20 = and i64 %19, -8
  %21 = load i64, ptr %6, align 8
  %22 = add i64 %21, %20
  store i64 %22, ptr %6, align 8
  %23 = load i32, ptr %3, align 4
  %24 = sext i32 %23 to i64
  %25 = mul i64 %24, 1
  %26 = add i64 %25, 7
  %27 = and i64 %26, -8
  %28 = load i64, ptr %6, align 8
  %29 = add i64 %28, %27
  store i64 %29, ptr %6, align 8
  %30 = load i32, ptr %3, align 4
  %31 = sext i32 %30 to i64
  %32 = mul i64 %31, 8
  %33 = add i64 %32, 7
  %34 = and i64 %33, -8
  %35 = load i64, ptr %6, align 8
  %36 = add i64 %35, %34
  store i64 %36, ptr %6, align 8
  %37 = load i32, ptr %3, align 4
  %38 = sext i32 %37 to i64
  %39 = mul i64 %38, 4
  %40 = add i64 %39, 7
  %41 = and i64 %40, -8
  %42 = load i64, ptr %6, align 8
  %43 = add i64 %42, %41
  store i64 %43, ptr %6, align 8
  %44 = load i32, ptr %3, align 4
  %45 = sext i32 %44 to i64
  %46 = mul i64 %45, 128
  %47 = add i64 %46, 7
  %48 = and i64 %47, -8
  %49 = load i64, ptr %6, align 8
  %50 = add i64 %49, %48
  store i64 %50, ptr %6, align 8
  %51 = load i32, ptr %5, align 4
  %52 = sext i32 %51 to i64
  %53 = mul i64 %52, 128
  %54 = add i64 %53, 7
  %55 = and i64 %54, -8
  %56 = load i64, ptr %6, align 8
  %57 = add i64 %56, %55
  store i64 %57, ptr %6, align 8
  %58 = load i32, ptr %5, align 4
  %59 = sext i32 %58 to i64
  %60 = mul i64 %59, 4
  %61 = add i64 %60, 7
  %62 = and i64 %61, -8
  %63 = load i64, ptr %6, align 8
  %64 = add i64 %63, %62
  store i64 %64, ptr %6, align 8
  %65 = load i32, ptr %4, align 4
  %66 = icmp sgt i32 %65, 0
  br i1 %66, label %67, label %77

67:                                               ; preds = %2
  %68 = load i32, ptr %3, align 4
  %69 = load i32, ptr %4, align 4
  %70 = mul i32 %68, %69
  %71 = sext i32 %70 to i64
  %72 = mul i64 %71, 8
  %73 = add i64 %72, 7
  %74 = and i64 %73, -8
  %75 = load i64, ptr %6, align 8
  %76 = add i64 %75, %74
  store i64 %76, ptr %6, align 8
  br label %77

77:                                               ; preds = %67, %2
  %78 = load i64, ptr %6, align 8
  %79 = add i64 %78, 31
  %80 = and i64 %79, -32
  %81 = load i32, ptr %3, align 4
  %82 = mul i32 8192, %81
  %83 = sext i32 %82 to i64
  %84 = add i64 %80, %83
  call void @llvm.lifetime.end.p0(i64 8, ptr %6) #9
  call void @llvm.lifetime.end.p0(i64 4, ptr %5) #9
  ret i64 %84
}

; Function Attrs: nounwind uwtable
define dso_local void @SimpleLruInit(ptr noundef %0, ptr noundef %1, i32 noundef %2, i32 noundef %3, ptr noundef %4, i32 noundef %5, i32 noundef %6, i32 noundef %7, i1 noundef zeroext %8) #0 {
  %10 = alloca ptr, align 8
  %11 = alloca ptr, align 8
  %12 = alloca i32, align 4
  %13 = alloca i32, align 4
  %14 = alloca ptr, align 8
  %15 = alloca i32, align 4
  %16 = alloca i32, align 4
  %17 = alloca i32, align 4
  %18 = alloca i8, align 1
  %19 = alloca ptr, align 8
  %20 = alloca i8, align 1
  %21 = alloca i32, align 4
  %22 = alloca ptr, align 8
  %23 = alloca i64, align 8
  %24 = alloca i32, align 4
  %25 = alloca i32, align 4
  store ptr %0, ptr %10, align 8
  store ptr %1, ptr %11, align 8
  store i32 %2, ptr %12, align 4
  store i32 %3, ptr %13, align 4
  store ptr %4, ptr %14, align 8
  store i32 %5, ptr %15, align 4
  store i32 %6, ptr %16, align 4
  store i32 %7, ptr %17, align 4
  %26 = zext i1 %8 to i8
  store i8 %26, ptr %18, align 1
  call void @llvm.lifetime.start.p0(i64 8, ptr %19) #9
  call void @llvm.lifetime.start.p0(i64 1, ptr %20) #9
  call void @llvm.lifetime.start.p0(i64 4, ptr %21) #9
  %27 = load i32, ptr %12, align 4
  %28 = sdiv i32 %27, 16
  store i32 %28, ptr %21, align 4
  %29 = load ptr, ptr %11, align 8
  %30 = load i32, ptr %12, align 4
  %31 = load i32, ptr %13, align 4
  %32 = call i64 @SimpleLruShmemSize(i32 noundef %30, i32 noundef %31)
  %33 = call ptr @ShmemInitStruct(ptr noundef %29, i64 noundef %32, ptr noundef %20)
  store ptr %33, ptr %19, align 8
  %34 = load i8, ptr @IsUnderPostmaster, align 1, !range !4, !noundef !5
  %35 = trunc i8 %34 to i1
  br i1 %35, label %237, label %36

36:                                               ; preds = %9
  call void @llvm.lifetime.start.p0(i64 8, ptr %22) #9
  call void @llvm.lifetime.start.p0(i64 8, ptr %23) #9
  %37 = load ptr, ptr %19, align 8
  call void @llvm.memset.p0.i64(ptr align 8 %37, i8 0, i64 104, i1 false)
  %38 = load i32, ptr %12, align 4
  %39 = load ptr, ptr %19, align 8
  %40 = getelementptr inbounds nuw %struct.SlruSharedData, ptr %39, i32 0, i32 0
  store i32 %38, ptr %40, align 8
  %41 = load i32, ptr %13, align 4
  %42 = load ptr, ptr %19, align 8
  %43 = getelementptr inbounds nuw %struct.SlruSharedData, ptr %42, i32 0, i32 10
  store i32 %41, ptr %43, align 8
  %44 = load ptr, ptr %19, align 8
  %45 = getelementptr inbounds nuw %struct.SlruSharedData, ptr %44, i32 0, i32 11
  call void @pg_atomic_init_u64(ptr noundef %45, i64 noundef 0)
  %46 = load ptr, ptr %11, align 8
  %47 = call i32 @pgstat_get_slru_index(ptr noundef %46)
  %48 = load ptr, ptr %19, align 8
  %49 = getelementptr inbounds nuw %struct.SlruSharedData, ptr %48, i32 0, i32 12
  store i32 %47, ptr %49, align 8
  %50 = load ptr, ptr %19, align 8
  store ptr %50, ptr %22, align 8
  store i64 104, ptr %23, align 8
  %51 = load ptr, ptr %22, align 8
  %52 = load i64, ptr %23, align 8
  %53 = getelementptr inbounds nuw i8, ptr %51, i64 %52
  %54 = load ptr, ptr %19, align 8
  %55 = getelementptr inbounds nuw %struct.SlruSharedData, ptr %54, i32 0, i32 1
  store ptr %53, ptr %55, align 8
  %56 = load i32, ptr %12, align 4
  %57 = sext i32 %56 to i64
  %58 = mul i64 %57, 8
  %59 = add i64 %58, 7
  %60 = and i64 %59, -8
  %61 = load i64, ptr %23, align 8
  %62 = add i64 %61, %60
  store i64 %62, ptr %23, align 8
  %63 = load ptr, ptr %22, align 8
  %64 = load i64, ptr %23, align 8
  %65 = getelementptr inbounds nuw i8, ptr %63, i64 %64
  %66 = load ptr, ptr %19, align 8
  %67 = getelementptr inbounds nuw %struct.SlruSharedData, ptr %66, i32 0, i32 2
  store ptr %65, ptr %67, align 8
  %68 = load i32, ptr %12, align 4
  %69 = sext i32 %68 to i64
  %70 = mul i64 %69, 4
  %71 = add i64 %70, 7
  %72 = and i64 %71, -8
  %73 = load i64, ptr %23, align 8
  %74 = add i64 %73, %72
  store i64 %74, ptr %23, align 8
  %75 = load ptr, ptr %22, align 8
  %76 = load i64, ptr %23, align 8
  %77 = getelementptr inbounds nuw i8, ptr %75, i64 %76
  %78 = load ptr, ptr %19, align 8
  %79 = getelementptr inbounds nuw %struct.SlruSharedData, ptr %78, i32 0, i32 3
  store ptr %77, ptr %79, align 8
  %80 = load i32, ptr %12, align 4
  %81 = sext i32 %80 to i64
  %82 = mul i64 %81, 1
  %83 = add i64 %82, 7
  %84 = and i64 %83, -8
  %85 = load i64, ptr %23, align 8
  %86 = add i64 %85, %84
  store i64 %86, ptr %23, align 8
  %87 = load ptr, ptr %22, align 8
  %88 = load i64, ptr %23, align 8
  %89 = getelementptr inbounds nuw i8, ptr %87, i64 %88
  %90 = load ptr, ptr %19, align 8
  %91 = getelementptr inbounds nuw %struct.SlruSharedData, ptr %90, i32 0, i32 4
  store ptr %89, ptr %91, align 8
  %92 = load i32, ptr %12, align 4
  %93 = sext i32 %92 to i64
  %94 = mul i64 %93, 8
  %95 = add i64 %94, 7
  %96 = and i64 %95, -8
  %97 = load i64, ptr %23, align 8
  %98 = add i64 %97, %96
  store i64 %98, ptr %23, align 8
  %99 = load ptr, ptr %22, align 8
  %100 = load i64, ptr %23, align 8
  %101 = getelementptr inbounds nuw i8, ptr %99, i64 %100
  %102 = load ptr, ptr %19, align 8
  %103 = getelementptr inbounds nuw %struct.SlruSharedData, ptr %102, i32 0, i32 5
  store ptr %101, ptr %103, align 8
  %104 = load i32, ptr %12, align 4
  %105 = sext i32 %104 to i64
  %106 = mul i64 %105, 4
  %107 = add i64 %106, 7
  %108 = and i64 %107, -8
  %109 = load i64, ptr %23, align 8
  %110 = add i64 %109, %108
  store i64 %110, ptr %23, align 8
  %111 = load ptr, ptr %22, align 8
  %112 = load i64, ptr %23, align 8
  %113 = getelementptr inbounds nuw i8, ptr %111, i64 %112
  %114 = load ptr, ptr %19, align 8
  %115 = getelementptr inbounds nuw %struct.SlruSharedData, ptr %114, i32 0, i32 6
  store ptr %113, ptr %115, align 8
  %116 = load i32, ptr %12, align 4
  %117 = sext i32 %116 to i64
  %118 = mul i64 %117, 128
  %119 = add i64 %118, 7
  %120 = and i64 %119, -8
  %121 = load i64, ptr %23, align 8
  %122 = add i64 %121, %120
  store i64 %122, ptr %23, align 8
  %123 = load ptr, ptr %22, align 8
  %124 = load i64, ptr %23, align 8
  %125 = getelementptr inbounds nuw i8, ptr %123, i64 %124
  %126 = load ptr, ptr %19, align 8
  %127 = getelementptr inbounds nuw %struct.SlruSharedData, ptr %126, i32 0, i32 7
  store ptr %125, ptr %127, align 8
  %128 = load i32, ptr %21, align 4
  %129 = sext i32 %128 to i64
  %130 = mul i64 %129, 128
  %131 = add i64 %130, 7
  %132 = and i64 %131, -8
  %133 = load i64, ptr %23, align 8
  %134 = add i64 %133, %132
  store i64 %134, ptr %23, align 8
  %135 = load ptr, ptr %22, align 8
  %136 = load i64, ptr %23, align 8
  %137 = getelementptr inbounds nuw i8, ptr %135, i64 %136
  %138 = load ptr, ptr %19, align 8
  %139 = getelementptr inbounds nuw %struct.SlruSharedData, ptr %138, i32 0, i32 8
  store ptr %137, ptr %139, align 8
  %140 = load i32, ptr %21, align 4
  %141 = sext i32 %140 to i64
  %142 = mul i64 %141, 4
  %143 = add i64 %142, 7
  %144 = and i64 %143, -8
  %145 = load i64, ptr %23, align 8
  %146 = add i64 %145, %144
  store i64 %146, ptr %23, align 8
  %147 = load i32, ptr %13, align 4
  %148 = icmp sgt i32 %147, 0
  br i1 %148, label %149, label %164

149:                                              ; preds = %36
  %150 = load ptr, ptr %22, align 8
  %151 = load i64, ptr %23, align 8
  %152 = getelementptr inbounds nuw i8, ptr %150, i64 %151
  %153 = load ptr, ptr %19, align 8
  %154 = getelementptr inbounds nuw %struct.SlruSharedData, ptr %153, i32 0, i32 9
  store ptr %152, ptr %154, align 8
  %155 = load i32, ptr %12, align 4
  %156 = load i32, ptr %13, align 4
  %157 = mul i32 %155, %156
  %158 = sext i32 %157 to i64
  %159 = mul i64 %158, 8
  %160 = add i64 %159, 7
  %161 = and i64 %160, -8
  %162 = load i64, ptr %23, align 8
  %163 = add i64 %162, %161
  store i64 %163, ptr %23, align 8
  br label %164

164:                                              ; preds = %149, %36
  %165 = load i64, ptr %23, align 8
  %166 = add i64 %165, 31
  %167 = and i64 %166, -32
  %168 = load ptr, ptr %22, align 8
  %169 = getelementptr inbounds nuw i8, ptr %168, i64 %167
  store ptr %169, ptr %22, align 8
  call void @llvm.lifetime.start.p0(i64 4, ptr %24) #9
  store i32 0, ptr %24, align 4
  br label %170

170:                                              ; preds = %210, %164
  %171 = load i32, ptr %24, align 4
  %172 = load i32, ptr %12, align 4
  %173 = icmp slt i32 %171, %172
  br i1 %173, label %175, label %174

174:                                              ; preds = %170
  call void @llvm.lifetime.end.p0(i64 4, ptr %24) #9
  br label %213

175:                                              ; preds = %170
  %176 = load ptr, ptr %19, align 8
  %177 = getelementptr inbounds nuw %struct.SlruSharedData, ptr %176, i32 0, i32 6
  %178 = load ptr, ptr %177, align 8
  %179 = load i32, ptr %24, align 4
  %180 = sext i32 %179 to i64
  %181 = getelementptr inbounds %union.LWLockPadded, ptr %178, i64 %180
  %182 = load i32, ptr %15, align 4
  call void @LWLockInitialize(ptr noundef %181, i32 noundef %182)
  %183 = load ptr, ptr %22, align 8
  %184 = load ptr, ptr %19, align 8
  %185 = getelementptr inbounds nuw %struct.SlruSharedData, ptr %184, i32 0, i32 1
  %186 = load ptr, ptr %185, align 8
  %187 = load i32, ptr %24, align 4
  %188 = sext i32 %187 to i64
  %189 = getelementptr inbounds ptr, ptr %186, i64 %188
  store ptr %183, ptr %189, align 8
  %190 = load ptr, ptr %19, align 8
  %191 = getelementptr inbounds nuw %struct.SlruSharedData, ptr %190, i32 0, i32 2
  %192 = load ptr, ptr %191, align 8
  %193 = load i32, ptr %24, align 4
  %194 = sext i32 %193 to i64
  %195 = getelementptr inbounds i32, ptr %192, i64 %194
  store i32 0, ptr %195, align 4
  %196 = load ptr, ptr %19, align 8
  %197 = getelementptr inbounds nuw %struct.SlruSharedData, ptr %196, i32 0, i32 3
  %198 = load ptr, ptr %197, align 8
  %199 = load i32, ptr %24, align 4
  %200 = sext i32 %199 to i64
  %201 = getelementptr inbounds i8, ptr %198, i64 %200
  store i8 0, ptr %201, align 1
  %202 = load ptr, ptr %19, align 8
  %203 = getelementptr inbounds nuw %struct.SlruSharedData, ptr %202, i32 0, i32 5
  %204 = load ptr, ptr %203, align 8
  %205 = load i32, ptr %24, align 4
  %206 = sext i32 %205 to i64
  %207 = getelementptr inbounds i32, ptr %204, i64 %206
  store i32 0, ptr %207, align 4
  %208 = load ptr, ptr %22, align 8
  %209 = getelementptr inbounds i8, ptr %208, i64 8192
  store ptr %209, ptr %22, align 8
  br label %210

210:                                              ; preds = %175
  %211 = load i32, ptr %24, align 4
  %212 = add i32 %211, 1
  store i32 %212, ptr %24, align 4
  br label %170, !llvm.loop !6

213:                                              ; preds = %174
  call void @llvm.lifetime.start.p0(i64 4, ptr %25) #9
  store i32 0, ptr %25, align 4
  br label %214

214:                                              ; preds = %233, %213
  %215 = load i32, ptr %25, align 4
  %216 = load i32, ptr %21, align 4
  %217 = icmp slt i32 %215, %216
  br i1 %217, label %219, label %218

218:                                              ; preds = %214
  call void @llvm.lifetime.end.p0(i64 4, ptr %25) #9
  br label %236

219:                                              ; preds = %214
  %220 = load ptr, ptr %19, align 8
  %221 = getelementptr inbounds nuw %struct.SlruSharedData, ptr %220, i32 0, i32 7
  %222 = load ptr, ptr %221, align 8
  %223 = load i32, ptr %25, align 4
  %224 = sext i32 %223 to i64
  %225 = getelementptr inbounds %union.LWLockPadded, ptr %222, i64 %224
  %226 = load i32, ptr %16, align 4
  call void @LWLockInitialize(ptr noundef %225, i32 noundef %226)
  %227 = load ptr, ptr %19, align 8
  %228 = getelementptr inbounds nuw %struct.SlruSharedData, ptr %227, i32 0, i32 8
  %229 = load ptr, ptr %228, align 8
  %230 = load i32, ptr %25, align 4
  %231 = sext i32 %230 to i64
  %232 = getelementptr inbounds i32, ptr %229, i64 %231
  store i32 0, ptr %232, align 4
  br label %233

233:                                              ; preds = %219
  %234 = load i32, ptr %25, align 4
  %235 = add i32 %234, 1
  store i32 %235, ptr %25, align 4
  br label %214, !llvm.loop !8

236:                                              ; preds = %218
  call void @llvm.lifetime.end.p0(i64 8, ptr %23) #9
  call void @llvm.lifetime.end.p0(i64 8, ptr %22) #9
  br label %238

237:                                              ; preds = %9
  br label %238

238:                                              ; preds = %237, %236
  %239 = load ptr, ptr %19, align 8
  %240 = load ptr, ptr %10, align 8
  %241 = getelementptr inbounds nuw %struct.SlruCtlData, ptr %240, i32 0, i32 0
  store ptr %239, ptr %241, align 8
  %242 = load i32, ptr %17, align 4
  %243 = load ptr, ptr %10, align 8
  %244 = getelementptr inbounds nuw %struct.SlruCtlData, ptr %243, i32 0, i32 3
  store i32 %242, ptr %244, align 4
  %245 = load i8, ptr %18, align 1, !range !4, !noundef !5
  %246 = trunc i8 %245 to i1
  %247 = load ptr, ptr %10, align 8
  %248 = getelementptr inbounds nuw %struct.SlruCtlData, ptr %247, i32 0, i32 2
  %249 = zext i1 %246 to i8
  store i8 %249, ptr %248, align 2
  %250 = load i32, ptr %21, align 4
  %251 = trunc i32 %250 to i16
  %252 = load ptr, ptr %10, align 8
  %253 = getelementptr inbounds nuw %struct.SlruCtlData, ptr %252, i32 0, i32 1
  store i16 %251, ptr %253, align 8
  %254 = load ptr, ptr %10, align 8
  %255 = getelementptr inbounds nuw %struct.SlruCtlData, ptr %254, i32 0, i32 5
  %256 = getelementptr inbounds [64 x i8], ptr %255, i64 0, i64 0
  %257 = load ptr, ptr %14, align 8
  %258 = call i64 @strlcpy(ptr noundef %256, ptr noundef %257, i64 noundef 64)
  call void @llvm.lifetime.end.p0(i64 4, ptr %21) #9
  call void @llvm.lifetime.end.p0(i64 1, ptr %20) #9
  call void @llvm.lifetime.end.p0(i64 8, ptr %19) #9
  ret void
}