; Function Attrs: nounwind uwtable
define dso_local void @SimpleLruInit(ptr noundef %0, ptr noundef %1, i32 noundef %2, i32 noundef %3, ptr noundef %4, i32 noundef %5, i32 noundef %6, i32 noundef %7, i1 noundef zeroext %8) local_unnamed_addr #3 {
  %10 = alloca i8, align 1
  call void @llvm.lifetime.start.p0(i64 1, ptr nonnull %10) #15
  %11 = sdiv i32 %2, 16
  %12 = sext i32 %2 to i64
  %13 = shl nsw i64 %12, 3
  %14 = add nsw i64 %12, 7
  %15 = and i64 %14, -8
  %16 = sext i32 %11 to i64
  %17 = add nsw i64 %16, %12
  %18 = shl nsw i64 %17, 7
  %19 = shl nsw i64 %16, 2
  %20 = add nsw i64 %19, 7
  %21 = and i64 %20, -8
  %22 = icmp sgt i32 %3, 0
  %23 = mul i32 %3, %2
  %24 = sext i32 %23 to i64
  %25 = shl nsw i64 %24, 3
  %26 = select i1 %22, i64 %25, i64 0
  %27 = shl nsw i64 %12, 4
  %28 = add nsw i64 %13, 14
  %29 = and i64 %28, -16
  %30 = add nsw i64 %27, 135
  %31 = add nsw i64 %30, %15
  %32 = add nsw i64 %31, %29
  %.0.i = add nsw i64 %32, %18
  %reass.mul.i = add nsw i64 %.0.i, %21
  %33 = add i64 %reass.mul.i, %26
  %34 = and i64 %33, -32
  %35 = shl i32 %2, 13
  %36 = sext i32 %35 to i64
  %37 = add i64 %34, %36
  %38 = call ptr @ShmemInitStruct(ptr noundef %1, i64 noundef %37, ptr noundef nonnull %10) #15
  %39 = load i8, ptr @IsUnderPostmaster, align 1, !range !4, !noundef !5
  %40 = trunc nuw i8 %39 to i1
  br i1 %40, label %.loopexit, label %41

41:                                               ; preds = %9
  call void @llvm.memset.p0.i64(ptr noundef nonnull align 8 dereferenceable(104) %38, i8 0, i64 104, i1 false)
  store i32 %2, ptr %38, align 8
  %42 = getelementptr inbounds nuw i8, ptr %38, i64 80
  store i32 %3, ptr %42, align 8
  %43 = getelementptr inbounds nuw i8, ptr %38, i64 88
  store volatile i64 0, ptr %43, align 8
  %44 = call i32 @pgstat_get_slru_index(ptr noundef %1) #15
  %45 = getelementptr inbounds nuw i8, ptr %38, i64 96
  store i32 %44, ptr %45, align 8
  %46 = getelementptr inbounds nuw i8, ptr %38, i64 104
  %47 = getelementptr inbounds nuw i8, ptr %38, i64 8
  store ptr %46, ptr %47, align 8
  %48 = add nsw i64 %13, 104
  %49 = getelementptr inbounds nuw i8, ptr %38, i64 %48
  %50 = getelementptr inbounds nuw i8, ptr %38, i64 16
  store ptr %49, ptr %50, align 8
  %51 = shl nsw i64 %12, 2
  %52 = add nsw i64 %51, 7
  %53 = and i64 %52, -8
  %54 = add nsw i64 %53, %48
  %55 = getelementptr inbounds nuw i8, ptr %38, i64 %54
  %56 = getelementptr inbounds nuw i8, ptr %38, i64 24
  store ptr %55, ptr %56, align 8
  %57 = add nsw i64 %54, %15
  %58 = getelementptr inbounds nuw i8, ptr %38, i64 %57
  %59 = getelementptr inbounds nuw i8, ptr %38, i64 32
  store ptr %58, ptr %59, align 8
  %60 = add nsw i64 %57, %13
  %61 = getelementptr inbounds nuw i8, ptr %38, i64 %60
  %62 = getelementptr inbounds nuw i8, ptr %38, i64 40
  store ptr %61, ptr %62, align 8
  %63 = add i64 %60, %53
  %64 = getelementptr i8, ptr %38, i64 %63
  %65 = getelementptr inbounds nuw i8, ptr %38, i64 48
  store ptr %64, ptr %65, align 8
  %66 = shl nsw i64 %12, 7
  %67 = getelementptr i8, ptr %64, i64 %66
  %68 = getelementptr inbounds nuw i8, ptr %38, i64 56
  store ptr %67, ptr %68, align 8
  %69 = add i64 %63, %18
  %70 = getelementptr inbounds nuw i8, ptr %38, i64 %69
  %71 = getelementptr inbounds nuw i8, ptr %38, i64 64
  store ptr %70, ptr %71, align 8
  %72 = add i64 %69, %21
  br i1 %22, label %73, label %77

73:                                               ; preds = %41
  %74 = getelementptr inbounds nuw i8, ptr %38, i64 %72
  %75 = getelementptr inbounds nuw i8, ptr %38, i64 72
  store ptr %74, ptr %75, align 8
  %76 = add i64 %72, %25
  br label %77

77:                                               ; preds = %73, %41
  %.096 = phi i64 [ %76, %73 ], [ %72, %41 ]
  %78 = icmp sgt i32 %2, 0
  br i1 %78, label %.lr.ph.preheader, label %.loopexit

.lr.ph.preheader:                                 ; preds = %77
  %79 = add i64 %.096, 31
  %80 = and i64 %79, -32
  %81 = getelementptr inbounds nuw i8, ptr %38, i64 %80
  %wide.trip.count = zext nneg i32 %2 to i64
  br label %.lr.ph

.preheader:                                       ; preds = %.lr.ph
  %82 = icmp sgt i32 %2, 15
  br i1 %82, label %.lr.ph102.preheader, label %.loopexit

.lr.ph102.preheader:                              ; preds = %.preheader
  %wide.trip.count107 = zext nneg i32 %11 to i64
  br label %.lr.ph102

.lr.ph:                                           ; preds = %.lr.ph.preheader, %.lr.ph
  %indvars.iv = phi i64 [ 0, %.lr.ph.preheader ], [ %indvars.iv.next, %.lr.ph ]
  %.09799 = phi ptr [ %81, %.lr.ph.preheader ], [ %93, %.lr.ph ]
  %83 = load ptr, ptr %65, align 8
  %84 = getelementptr inbounds nuw %union.LWLockPadded, ptr %83, i64 %indvars.iv
  call void @LWLockInitialize(ptr noundef %84, i32 noundef %5) #15
  %85 = load ptr, ptr %47, align 8
  %86 = getelementptr inbounds nuw ptr, ptr %85, i64 %indvars.iv
  store ptr %.09799, ptr %86, align 8
  %87 = load ptr, ptr %50, align 8
  %88 = getelementptr inbounds nuw i32, ptr %87, i64 %indvars.iv
  store i32 0, ptr %88, align 4
  %89 = load ptr, ptr %56, align 8
  %90 = getelementptr inbounds nuw i8, ptr %89, i64 %indvars.iv
  store i8 0, ptr %90, align 1
  %91 = load ptr, ptr %62, align 8
  %92 = getelementptr inbounds nuw i32, ptr %91, i64 %indvars.iv
  store i32 0, ptr %92, align 4
  %93 = getelementptr inbounds nuw i8, ptr %.09799, i64 8192
  %indvars.iv.next = add nuw nsw i64 %indvars.iv, 1
  %exitcond.not = icmp eq i64 %indvars.iv.next, %wide.trip.count
  br i1 %exitcond.not, label %.preheader, label %.lr.ph, !llvm.loop !6

.lr.ph102:                                        ; preds = %.lr.ph102.preheader, %.lr.ph102
  %indvars.iv104 = phi i64 [ 0, %.lr.ph102.preheader ], [ %indvars.iv.next105, %.lr.ph102 ]
  %94 = load ptr, ptr %68, align 8
  %95 = getelementptr inbounds nuw %union.LWLockPadded, ptr %94, i64 %indvars.iv104
  call void @LWLockInitialize(ptr noundef %95, i32 noundef %6) #15
  %96 = load ptr, ptr %71, align 8
  %97 = getelementptr inbounds nuw i32, ptr %96, i64 %indvars.iv104
  store i32 0, ptr %97, align 4
  %indvars.iv.next105 = add nuw nsw i64 %indvars.iv104, 1
  %exitcond108.not = icmp eq i64 %indvars.iv.next105, %wide.trip.count107
  br i1 %exitcond108.not, label %.loopexit, label %.lr.ph102, !llvm.loop !8

.loopexit:                                        ; preds = %.lr.ph102, %77, %.preheader, %9
  %98 = zext i1 %8 to i8
  store ptr %38, ptr %0, align 8
  %99 = getelementptr inbounds nuw i8, ptr %0, i64 12
  store i32 %7, ptr %99, align 4
  %100 = getelementptr inbounds nuw i8, ptr %0, i64 10
  store i8 %98, ptr %100, align 2
  %101 = trunc i32 %11 to i16
  %102 = getelementptr inbounds nuw i8, ptr %0, i64 8
  store i16 %101, ptr %102, align 8
  %103 = getelementptr inbounds nuw i8, ptr %0, i64 24
  %104 = call i64 @strlcpy(ptr noundef nonnull dereferenceable(1) %103, ptr noundef nonnull dereferenceable(1) %4, i64 noundef 64) #15
  call void @llvm.lifetime.end.p0(i64 1, ptr nonnull %10) #15
  ret void
}